target datalayout = "e-m:e-p270:32:32-p271:32:32-p272:64:64-i64:64-i128:128-f80:128-n8:16:32:64-S128"
target triple = "x86_64-pc-linux-gnu"

%struct.Vec_Wrd_t_ = type { i32, i32, ptr }
%struct.timespec = type { i64, i64 }

@.str.12 = private unnamed_addr constant [36 x i8] c"Solution with %d variables found.  \00", align 1
@.str.13 = private unnamed_addr constant [14 x i8] c"Covering time\00", align 1
@.str.28 = private unnamed_addr constant [5 x i8] c"%s =\00", align 1
@.str.29 = private unnamed_addr constant [11 x i8] c"%9.2f sec\0A\00", align 1

; Function Attrs: inlinehint nounwind uwtable
define internal void @Abc_PrintTime(i32 noundef %0, ptr noundef %1, i64 noundef %2) #2 {
  %4 = alloca i32, align 4
  %5 = alloca ptr, align 8
  %6 = alloca i64, align 8
  store i32 %0, ptr %4, align 4, !tbaa !3
  store ptr %1, ptr %5, align 8, !tbaa !39
  store i64 %2, ptr %6, align 8, !tbaa !17
  %7 = load ptr, ptr %5, align 8, !tbaa !39
  call void (i32, ptr, ...) @Abc_Print(i32 noundef 1, ptr noundef @.str.28, ptr noundef %7)
  %8 = load i64, ptr %6, align 8, !tbaa !17
  %9 = sitofp i64 %8 to double
  %10 = fmul double 1.000000e+00, %9
  %11 = fdiv double %10, 1.000000e+06
  call void (i32, ptr, ...) @Abc_Print(i32 noundef 1, ptr noundef @.str.29, double noundef %11)
  ret void
}

; Function Attrs: inlinehint nounwind uwtable
define internal void @Vec_WrdFreeP(ptr noundef %0) #2 {
  %2 = alloca ptr, align 8
  store ptr %0, ptr %2, align 8, !tbaa !65
  %3 = load ptr, ptr %2, align 8, !tbaa !65
  %4 = load ptr, ptr %3, align 8, !tbaa !7
  %5 = icmp eq ptr %4, null
  br i1 %5, label %6, label %7

6:                                                ; preds = %1
  br label %32

7:                                                ; preds = %1
  %8 = load ptr, ptr %2, align 8, !tbaa !65
  %9 = load ptr, ptr %8, align 8, !tbaa !7
  %10 = getelementptr inbounds nuw %struct.Vec_Wrd_t_, ptr %9, i32 0, i32 2
  %11 = load ptr, ptr %10, align 8, !tbaa !16
  %12 = icmp ne ptr %11, null
  br i1 %12, label %13, label %21

13:                                               ; preds = %7
  %14 = load ptr, ptr %2, align 8, !tbaa !65
  %15 = load ptr, ptr %14, align 8, !tbaa !7
  %16 = getelementptr inbounds nuw %struct.Vec_Wrd_t_, ptr %15, i32 0, i32 2
  %17 = load ptr, ptr %16, align 8, !tbaa !16
  call void @free(ptr noundef %17) #13
  %18 = load ptr, ptr %2, align 8, !tbaa !65
  %19 = load ptr, ptr %18, align 8, !tbaa !7
  %20 = getelementptr inbounds nuw %struct.Vec_Wrd_t_, ptr %19, i32 0, i32 2
  store ptr null, ptr %20, align 8, !tbaa !16
  br label %22

21:                                               ; preds = %7
  br label %22

22:                                               ; preds = %21, %13
  %23 = load ptr, ptr %2, align 8, !tbaa !65
  %24 = load ptr, ptr %23, align 8, !tbaa !7
  %25 = icmp ne ptr %24, null
  br i1 %25, label %26, label %30

26:                                               ; preds = %22
  %27 = load ptr, ptr %2, align 8, !tbaa !65
  %28 = load ptr, ptr %27, align 8, !tbaa !7
  call void @free(ptr noundef %28) #13
  %29 = load ptr, ptr %2, align 8, !tbaa !65
  store ptr null, ptr %29, align 8, !tbaa !7
  br label %31

30:                                               ; preds = %22
  br label %31

31:                                               ; preds = %30, %26
  br label %32

32:                                               ; preds = %31, %6
  ret void
}

; Function Attrs: inlinehint nounwind uwtable
define internal i64 @Abc_Clock() #2 {
  %1 = alloca i64, align 8
  %2 = alloca %struct.timespec, align 8
  %3 = alloca i32, align 4
  %4 = alloca i64, align 8
  call void @llvm.lifetime.start.p0(i64 16, ptr %2) #13
  %5 = call i32 @clock_gettime(i32 noundef 1, ptr noundef %2) #13
  %6 = icmp slt i32 %5, 0
  br i1 %6, label %7, label %8

7:                                                ; preds = %0
  store i64 -1, ptr %1, align 8
  store i32 1, ptr %3, align 4
  br label %19

8:                                                ; preds = %0
  call void @llvm.lifetime.start.p0(i64 8, ptr %4) #13
  %9 = getelementptr inbounds nuw %struct.timespec, ptr %2, i32 0, i32 0
  %10 = load i64, ptr %9, align 8, !tbaa !67
  %11 = mul nsw i64 %10, 1000000
  store i64 %11, ptr %4, align 8, !tbaa !17
  %12 = getelementptr inbounds nuw %struct.timespec, ptr %2, i32 0, i32 1
  %13 = load i64, ptr %12, align 8, !tbaa !69
  %14 = mul nsw i64 %13, 1000000
  %15 = sdiv i64 %14, 1000000000
  %16 = load i64, ptr %4, align 8, !tbaa !17
  %17 = add nsw i64 %16, %15
  store i64 %17, ptr %4, align 8, !tbaa !17
  %18 = load i64, ptr %4, align 8, !tbaa !17
  store i64 %18, ptr %1, align 8
  store i32 1, ptr %3, align 4
  call void @llvm.lifetime.end.p0(i64 8, ptr %4) #13
  br label %19

19:                                               ; preds = %8, %7
  call void @llvm.lifetime.end.p0(i64 16, ptr %2) #13
  %20 = load i64, ptr %1, align 8
  ret i64 %20
}

; Function Attrs: nounwind uwtable
define void @Abc_SuppReadMinTest(ptr noundef %0) #0 {
  %2 = alloca ptr, align 8
  %3 = alloca i64, align 8
  %4 = alloca i32, align 4
  %5 = alloca i32, align 4
  %6 = alloca ptr, align 8
  %7 = alloca ptr, align 8
  %8 = alloca i32, align 4
  store ptr %0, ptr %2, align 8, !tbaa !39
  call void @llvm.lifetime.start.p0(i64 8, ptr %3) #13
  %9 = call i64 @Abc_Clock()
  store i64 %9, ptr %3, align 8, !tbaa !17
  call void @llvm.lifetime.start.p0(i64 4, ptr %4) #13
  call void @llvm.lifetime.start.p0(i64 4, ptr %5) #13
  call void @llvm.lifetime.start.p0(i64 8, ptr %6) #13
  call void @llvm.lifetime.start.p0(i64 8, ptr %7) #13
  %10 = load ptr, ptr %2, align 8, !tbaa !39
  %11 = call ptr @Abc_SuppReadMin(ptr noundef %10, ptr noundef %4)
  store ptr %11, ptr %7, align 8, !tbaa !7
  %12 = load ptr, ptr %7, align 8, !tbaa !7
  %13 = icmp eq ptr %12, null
  br i1 %13, label %14, label %15

14:                                               ; preds = %1
  store i32 1, ptr %8, align 4
  br label %27

15:                                               ; preds = %1
  %16 = load ptr, ptr %7, align 8, !tbaa !7
  %17 = call ptr @Abc_SuppDiffMatrix(ptr noundef %16)
  store ptr %17, ptr %6, align 8, !tbaa !7
  call void @Vec_WrdFreeP(ptr noundef %7)
  %18 = call i64 @Abc_Clock()
  store i64 %18, ptr %3, align 8, !tbaa !17
  %19 = load ptr, ptr %6, align 8, !tbaa !7
  %20 = load i32, ptr %4, align 4, !tbaa !3
  %21 = call i32 @Abc_SuppSolve(ptr noundef %19, i32 noundef %20)
  store i32 %21, ptr %5, align 4, !tbaa !3
  %22 = load i32, ptr %5, align 4, !tbaa !3
  %23 = call i32 (ptr, ...) @printf(ptr noundef @.str.12, i32 noundef %22)
  %24 = call i64 @Abc_Clock()
  %25 = load i64, ptr %3, align 8, !tbaa !17
  %26 = sub nsw i64 %24, %25
  call void @Abc_PrintTime(i32 noundef 1, ptr noundef @.str.13, i64 noundef %26)
  call void @Vec_WrdFreeP(ptr noundef %6)
  store i32 0, ptr %8, align 4
  br label %27

27:                                               ; preds = %15, %14
  call void @llvm.lifetime.end.p0(i64 8, ptr %7) #13
  call void @llvm.lifetime.end.p0(i64 8, ptr %6) #13
  call void @llvm.lifetime.end.p0(i64 4, ptr %5) #13
  call void @llvm.lifetime.end.p0(i64 4, ptr %4) #13
  call void @llvm.lifetime.end.p0(i64 8, ptr %3) #13
  %28 = load i32, ptr %8, align 4
  switch i32 %28, label %30 [
    i32 0, label %29
    i32 1, label %29
  ]

29:                                               ; preds = %27, %27
  ret void

30:                                               ; preds = %27
  unreachable
}