; Function Attrs: nounwind uwtable
define void @Abc_SuppReadMinTest(ptr noundef %0) local_unnamed_addr #0 {
Abc_Clock.exit:
  %1 = alloca %struct.timespec, align 8
  %2 = alloca %struct.timespec, align 8
  %3 = alloca %struct.timespec, align 8
  %4 = alloca i32, align 4
  call void @llvm.lifetime.start.p0(i64 16, ptr nonnull %3) #24
  %5 = call i32 @clock_gettime(i32 noundef 1, ptr noundef nonnull %3) #24
  call void @llvm.lifetime.end.p0(i64 16, ptr nonnull %3) #24
  call void @llvm.lifetime.start.p0(i64 4, ptr nonnull %4) #24
  %6 = call ptr @Abc_SuppReadMin(ptr noundef %0, ptr noundef nonnull %4)
  %7 = icmp eq ptr %6, null
  br i1 %7, label %Vec_WrdFreeP.exit8, label %8

8:                                                ; preds = %Abc_Clock.exit
  %9 = call ptr @Abc_SuppDiffMatrix(ptr noundef nonnull %6)
  %10 = getelementptr inbounds nuw i8, ptr %6, i64 8
  %11 = load ptr, ptr %10, align 8, !tbaa !11
  %.not.i = icmp eq ptr %11, null
  br i1 %.not.i, label %Vec_WrdFreeP.exit, label %.thread.i

.thread.i:                                        ; preds = %8
  call void @free(ptr noundef nonnull %11) #24
  br label %Vec_WrdFreeP.exit

Vec_WrdFreeP.exit:                                ; preds = %8, %.thread.i
  call void @free(ptr noundef nonnull %6) #24
  call void @llvm.lifetime.start.p0(i64 16, ptr nonnull %2) #24
  %12 = call i32 @clock_gettime(i32 noundef 1, ptr noundef nonnull %2) #24
  %13 = icmp slt i32 %12, 0
  br i1 %13, label %Abc_Clock.exit3, label %14

14:                                               ; preds = %Vec_WrdFreeP.exit
  %15 = load i64, ptr %2, align 8, !tbaa !34
  %.neg13 = mul i64 %15, -1000000
  %16 = getelementptr inbounds nuw i8, ptr %2, i64 8
  %17 = load i64, ptr %16, align 8, !tbaa !36
  %.neg = sdiv i64 %17, -1000
  %.neg14 = add i64 %.neg, %.neg13
  br label %Abc_Clock.exit3

Abc_Clock.exit3:                                  ; preds = %Vec_WrdFreeP.exit, %14
  %.0.i2.neg = phi i64 [ %.neg14, %14 ], [ 1, %Vec_WrdFreeP.exit ]
  call void @llvm.lifetime.end.p0(i64 16, ptr nonnull %2) #24
  %18 = load i32, ptr %4, align 4, !tbaa !22
  %19 = call i32 @Abc_SuppSolve(ptr noundef %9, i32 noundef %18)
  %20 = call i32 (ptr, ...) @printf(ptr noundef nonnull dereferenceable(1) @.str.12, i32 noundef %19)
  call void @llvm.lifetime.start.p0(i64 16, ptr nonnull %1) #24
  %21 = call i32 @clock_gettime(i32 noundef 1, ptr noundef nonnull %1) #24
  %22 = icmp slt i32 %21, 0
  br i1 %22, label %Abc_Clock.exit5, label %23

23:                                               ; preds = %Abc_Clock.exit3
  %24 = load i64, ptr %1, align 8, !tbaa !34
  %25 = mul nsw i64 %24, 1000000
  %26 = getelementptr inbounds nuw i8, ptr %1, i64 8
  %27 = load i64, ptr %26, align 8, !tbaa !36
  %28 = sdiv i64 %27, 1000
  %29 = add nsw i64 %28, %25
  br label %Abc_Clock.exit5

Abc_Clock.exit5:                                  ; preds = %Abc_Clock.exit3, %23
  %.0.i4 = phi i64 [ %29, %23 ], [ -1, %Abc_Clock.exit3 ]
  call void @llvm.lifetime.end.p0(i64 16, ptr nonnull %1) #24
  %30 = add i64 %.0.i4, %.0.i2.neg
  call void (i32, ptr, ...) @Abc_Print(i32 poison, ptr noundef nonnull @.str.28, ptr noundef nonnull @.str.13)
  %31 = sitofp i64 %30 to double
  %32 = fdiv double %31, 1.000000e+06
  call void (i32, ptr, ...) @Abc_Print(i32 poison, ptr noundef nonnull @.str.29, double noundef %32)
  %33 = icmp eq ptr %9, null
  br i1 %33, label %Vec_WrdFreeP.exit8, label %34

34:                                               ; preds = %Abc_Clock.exit5
  %35 = getelementptr inbounds nuw i8, ptr %9, i64 8
  %36 = load ptr, ptr %35, align 8, !tbaa !11
  %.not.i6 = icmp eq ptr %36, null
  br i1 %.not.i6, label %37, label %.thread.i7

.thread.i7:                                       ; preds = %34
  call void @free(ptr noundef nonnull %36) #24
  br label %37

37:                                               ; preds = %.thread.i7, %34
  call void @free(ptr noundef nonnull %9) #24
  br label %Vec_WrdFreeP.exit8

Vec_WrdFreeP.exit8:                               ; preds = %37, %Abc_Clock.exit5, %Abc_Clock.exit
  call void @llvm.lifetime.end.p0(i64 4, ptr nonnull %4) #24
  ret void
}